target datalayout = "e-m:e-p270:32:32-p271:32:32-p272:64:64-i64:64-i128:128-f80:128-n8:16:32:64-S128"
target triple = "x86_64-pc-linux-gnu"

%struct.callerid_conn_t = type { i32, i32, %struct.in6_addr, %struct.in6_addr, i32 }
%struct.in6_addr = type { %union.anon }
%union.anon = type { [4 x i32] }

@.str.11 = private unnamed_addr constant [2 x i8] c"r\00", align 1
@.str.12 = private unnamed_addr constant [58 x i8] c"%*s %[0-9A-Z]:%x %[0-9A-Z]:%x %*s %*s %*s %*s %*s %*s %lu\00", align 1
@.str.13 = private unnamed_addr constant [57 x i8] c"network_callerid matched %s:%lu => %s:%lu with inode %lu\00", align 1

; Function Attrs: inlinehint nounwind uwtable
define internal i32 @__bswap_32(i32 noundef %0) #7 {
  %2 = alloca i32, align 4
  store i32 %0, ptr %2, align 4
  %3 = load i32, ptr %2, align 4
  %4 = and i32 %3, -16777216
  %5 = lshr i32 %4, 24
  %6 = load i32, ptr %2, align 4
  %7 = and i32 %6, 16711680
  %8 = lshr i32 %7, 8
  %9 = or i32 %5, %8
  %10 = load i32, ptr %2, align 4
  %11 = and i32 %10, 65280
  %12 = shl i32 %11, 8
  %13 = or i32 %9, %12
  %14 = load i32, ptr %2, align 4
  %15 = and i32 %14, 255
  %16 = shl i32 %15, 24
  %17 = or i32 %13, %16
  ret i32 %17
}

; Function Attrs: nounwind uwtable
define internal i32 @_find_match_in_tcp_file(ptr noundef %0, ptr noundef %1, i32 noundef %2, ptr noundef %3, ptr noundef %4) #0 {
  %6 = alloca i32, align 4
  %7 = alloca ptr, align 8
  %8 = alloca ptr, align 8
  %9 = alloca i32, align 4
  %10 = alloca ptr, align 8
  %11 = alloca ptr, align 8
  %12 = alloca i32, align 4
  %13 = alloca ptr, align 8
  %14 = alloca [47 x i8], align 16
  %15 = alloca [47 x i8], align 16
  %16 = alloca [1024 x i8], align 16
  %17 = alloca i32, align 4
  %18 = alloca i32, align 4
  %19 = alloca i32, align 4
  %20 = alloca i64, align 8
  %21 = alloca %struct.callerid_conn_t, align 4
  %22 = alloca i32, align 4
  %23 = alloca [46 x i8], align 16
  %24 = alloca [46 x i8], align 16
  store ptr %0, ptr %7, align 8
  store ptr %1, ptr %8, align 8
  store i32 %2, ptr %9, align 4
  store ptr %3, ptr %10, align 8
  store ptr %4, ptr %11, align 8
  call void @llvm.lifetime.start.p0(i64 4, ptr %12) #10
  store i32 -1, ptr %12, align 4
  call void @llvm.lifetime.start.p0(i64 8, ptr %13) #10
  call void @llvm.lifetime.start.p0(i64 47, ptr %14) #10
  call void @llvm.lifetime.start.p0(i64 47, ptr %15) #10
  call void @llvm.lifetime.start.p0(i64 1024, ptr %16) #10
  call void @llvm.lifetime.start.p0(i64 4, ptr %17) #10
  call void @llvm.lifetime.start.p0(i64 4, ptr %18) #10
  call void @llvm.lifetime.start.p0(i64 4, ptr %19) #10
  call void @llvm.lifetime.start.p0(i64 8, ptr %20) #10
  call void @llvm.lifetime.start.p0(i64 44, ptr %21) #10
  %25 = load i32, ptr %9, align 4
  %26 = icmp eq i32 %25, 2
  %27 = select i1 %26, i32 4, i32 16
  store i32 %27, ptr %17, align 4
  %28 = getelementptr inbounds nuw %struct.callerid_conn_t, ptr %21, i32 0, i32 2
  call void @llvm.memset.p0.i64(ptr align 4 %28, i8 0, i64 16, i1 false)
  %29 = getelementptr inbounds nuw %struct.callerid_conn_t, ptr %21, i32 0, i32 3
  call void @llvm.memset.p0.i64(ptr align 4 %29, i8 0, i64 16, i1 false)
  %30 = load ptr, ptr %10, align 8
  %31 = call noalias ptr @fopen(ptr noundef %30, ptr noundef @.str.11)
  store ptr %31, ptr %13, align 8
  %32 = load ptr, ptr %13, align 8
  %33 = icmp ne ptr %32, null
  br i1 %33, label %36, label %34

34:                                               ; preds = %5
  %35 = load i32, ptr %12, align 4
  store i32 %35, ptr %6, align 4
  store i32 1, ptr %22, align 4
  br label %145

36:                                               ; preds = %5
  br label %37

37:                                               ; preds = %140, %55, %36
  %38 = getelementptr inbounds [1024 x i8], ptr %16, i64 0, i64 0
  %39 = load ptr, ptr %13, align 8
  %40 = call ptr @fgets(ptr noundef %38, i32 noundef 1024, ptr noundef %39)
  %41 = icmp ne ptr %40, null
  br i1 %41, label %42, label %141

42:                                               ; preds = %37
  %43 = getelementptr inbounds [1024 x i8], ptr %16, i64 0, i64 0
  %44 = getelementptr inbounds [47 x i8], ptr %14, i64 0, i64 0
  %45 = getelementptr inbounds nuw %struct.callerid_conn_t, ptr %21, i32 0, i32 0
  %46 = getelementptr inbounds [47 x i8], ptr %15, i64 0, i64 0
  %47 = getelementptr inbounds nuw %struct.callerid_conn_t, ptr %21, i32 0, i32 1
  %48 = call i32 (ptr, ptr, ...) @__isoc99_sscanf(ptr noundef %43, ptr noundef @.str.12, ptr noundef %44, ptr noundef %45, ptr noundef %46, ptr noundef %47, ptr noundef %20) #10
  store i32 %48, ptr %19, align 4
  %49 = load i32, ptr %19, align 4
  %50 = icmp eq i32 %49, -1
  br i1 %50, label %51, label %52

51:                                               ; preds = %42
  br label %141

52:                                               ; preds = %42
  %53 = load i32, ptr %19, align 4
  %54 = icmp ne i32 %53, 0
  br i1 %54, label %56, label %55

55:                                               ; preds = %52
  br label %37, !llvm.loop !10

56:                                               ; preds = %52
  %57 = getelementptr inbounds [47 x i8], ptr %14, i64 0, i64 0
  %58 = getelementptr inbounds nuw %struct.callerid_conn_t, ptr %21, i32 0, i32 2
  %59 = load i32, ptr %17, align 4
  %60 = call i32 @inet_nsap_addr(ptr noundef %57, ptr noundef %58, i32 noundef %59) #10
  %61 = getelementptr inbounds [47 x i8], ptr %15, i64 0, i64 0
  %62 = getelementptr inbounds nuw %struct.callerid_conn_t, ptr %21, i32 0, i32 3
  %63 = load i32, ptr %17, align 4
  %64 = call i32 @inet_nsap_addr(ptr noundef %61, ptr noundef %62, i32 noundef %63) #10
  store i32 0, ptr %18, align 4
  br label %65

65:                                               ; preds = %95, %56
  %66 = load i32, ptr %18, align 4
  %67 = load i32, ptr %17, align 4
  %68 = ashr i32 %67, 2
  %69 = icmp slt i32 %66, %68
  br i1 %69, label %70, label %98

70:                                               ; preds = %65
  %71 = getelementptr inbounds nuw %struct.callerid_conn_t, ptr %21, i32 0, i32 2
  %72 = getelementptr inbounds nuw %struct.in6_addr, ptr %71, i32 0, i32 0
  %73 = load i32, ptr %18, align 4
  %74 = sext i32 %73 to i64
  %75 = getelementptr inbounds [4 x i32], ptr %72, i64 0, i64 %74
  %76 = load i32, ptr %75, align 4
  %77 = call i32 @__bswap_32(i32 noundef %76)
  %78 = getelementptr inbounds nuw %struct.callerid_conn_t, ptr %21, i32 0, i32 2
  %79 = getelementptr inbounds nuw %struct.in6_addr, ptr %78, i32 0, i32 0
  %80 = load i32, ptr %18, align 4
  %81 = sext i32 %80 to i64
  %82 = getelementptr inbounds [4 x i32], ptr %79, i64 0, i64 %81
  store i32 %77, ptr %82, align 4
  %83 = getelementptr inbounds nuw %struct.callerid_conn_t, ptr %21, i32 0, i32 3
  %84 = getelementptr inbounds nuw %struct.in6_addr, ptr %83, i32 0, i32 0
  %85 = load i32, ptr %18, align 4
  %86 = sext i32 %85 to i64
  %87 = getelementptr inbounds [4 x i32], ptr %84, i64 0, i64 %86
  %88 = load i32, ptr %87, align 4
  %89 = call i32 @__bswap_32(i32 noundef %88)
  %90 = getelementptr inbounds nuw %struct.callerid_conn_t, ptr %21, i32 0, i32 3
  %91 = getelementptr inbounds nuw %struct.in6_addr, ptr %90, i32 0, i32 0
  %92 = load i32, ptr %18, align 4
  %93 = sext i32 %92 to i64
  %94 = getelementptr inbounds [4 x i32], ptr %91, i64 0, i64 %93
  store i32 %89, ptr %94, align 4
  br label %95

95:                                               ; preds = %70
  %96 = load i32, ptr %18, align 4
  %97 = add nsw i32 %96, 1
  store i32 %97, ptr %18, align 4
  br label %65, !llvm.loop !12

98:                                               ; preds = %65
  %99 = load ptr, ptr %11, align 8
  %100 = load ptr, ptr %7, align 8
  %101 = load ptr, ptr %8, align 8
  %102 = load i64, ptr %20, align 8
  %103 = load i32, ptr %9, align 4
  %104 = call i32 %99(ptr noundef %100, ptr noundef %101, ptr noundef %21, i64 noundef %102, i32 noundef %103)
  store i32 %104, ptr %12, align 4
  %105 = load i32, ptr %12, align 4
  %106 = icmp eq i32 %105, 0
  br i1 %106, label %107, label %140

107:                                              ; preds = %98
  call void @llvm.lifetime.start.p0(i64 46, ptr %23) #10
  call void @llvm.lifetime.start.p0(i64 46, ptr %24) #10
  %108 = load i32, ptr %9, align 4
  %109 = load ptr, ptr %7, align 8
  %110 = getelementptr inbounds nuw %struct.callerid_conn_t, ptr %109, i32 0, i32 3
  %111 = getelementptr inbounds [46 x i8], ptr %23, i64 0, i64 0
  %112 = call ptr @inet_ntop(i32 noundef %108, ptr noundef %110, ptr noundef %111, i32 noundef 46) #10
  %113 = load i32, ptr %9, align 4
  %114 = load ptr, ptr %7, align 8
  %115 = getelementptr inbounds nuw %struct.callerid_conn_t, ptr %114, i32 0, i32 2
  %116 = getelementptr inbounds [46 x i8], ptr %24, i64 0, i64 0
  %117 = call ptr @inet_ntop(i32 noundef %113, ptr noundef %115, ptr noundef %116, i32 noundef 46) #10
  br label %118

118:                                              ; preds = %107
  br label %119

119:                                              ; preds = %118
  %120 = call i32 @get_log_level()
  %121 = icmp sge i32 %120, 5
  br i1 %121, label %122, label %135

122:                                              ; preds = %119
  %123 = getelementptr inbounds [46 x i8], ptr %23, i64 0, i64 0
  %124 = load ptr, ptr %7, align 8
  %125 = getelementptr inbounds nuw %struct.callerid_conn_t, ptr %124, i32 0, i32 1
  %126 = load i32, ptr %125, align 4
  %127 = zext i32 %126 to i64
  %128 = getelementptr inbounds [46 x i8], ptr %24, i64 0, i64 0
  %129 = load ptr, ptr %7, align 8
  %130 = getelementptr inbounds nuw %struct.callerid_conn_t, ptr %129, i32 0, i32 0
  %131 = load i32, ptr %130, align 4
  %132 = zext i32 %131 to i64
  %133 = load ptr, ptr %8, align 8
  %134 = ptrtoint ptr %133 to i64
  call void (i32, ptr, ...) @log_var(i32 noundef 5, ptr noundef @.str.13, ptr noundef %123, i64 noundef %127, ptr noundef %128, i64 noundef %132, i64 noundef %134)
  br label %135

135:                                              ; preds = %122, %119
  br label %136

136:                                              ; preds = %135
  br label %137

137:                                              ; preds = %136
  br label %138

138:                                              ; preds = %137
  br label %139

139:                                              ; preds = %138
  store i32 3, ptr %22, align 4
  call void @llvm.lifetime.end.p0(i64 46, ptr %24) #10
  call void @llvm.lifetime.end.p0(i64 46, ptr %23) #10
  br label %141

140:                                              ; preds = %98
  br label %37, !llvm.loop !10

141:                                              ; preds = %139, %51, %37
  %142 = load ptr, ptr %13, align 8
  %143 = call i32 @fclose(ptr noundef %142)
  %144 = load i32, ptr %12, align 4
  store i32 %144, ptr %6, align 4
  store i32 1, ptr %22, align 4
  br label %145

145:                                              ; preds = %141, %34
  call void @llvm.lifetime.end.p0(i64 44, ptr %21) #10
  call void @llvm.lifetime.end.p0(i64 8, ptr %20) #10
  call void @llvm.lifetime.end.p0(i64 4, ptr %19) #10
  call void @llvm.lifetime.end.p0(i64 4, ptr %18) #10
  call void @llvm.lifetime.end.p0(i64 4, ptr %17) #10
  call void @llvm.lifetime.end.p0(i64 1024, ptr %16) #10
  call void @llvm.lifetime.end.p0(i64 47, ptr %15) #10
  call void @llvm.lifetime.end.p0(i64 47, ptr %14) #10
  call void @llvm.lifetime.end.p0(i64 8, ptr %13) #10
  call void @llvm.lifetime.end.p0(i64 4, ptr %12) #10
  %146 = load i32, ptr %6, align 4
  ret i32 %146
}