; Function Attrs: nounwind uwtable
define internal fastcc i32 @_find_match_in_tcp_file(ptr noundef %0, ptr noundef %1, i32 noundef range(i32 2, 11) %2, ptr noundef readonly captures(none) %3, ptr noundef readonly captures(none) %4) unnamed_addr #0 {
  %6 = alloca [47 x i8], align 16
  %7 = alloca [47 x i8], align 16
  %8 = alloca [1024 x i8], align 16
  %9 = alloca i64, align 8
  %10 = alloca %struct.callerid_conn_t, align 4
  %11 = alloca [46 x i8], align 16
  %12 = alloca [46 x i8], align 16
  call void @llvm.lifetime.start.p0(i64 47, ptr nonnull %6) #11
  call void @llvm.lifetime.start.p0(i64 47, ptr nonnull %7) #11
  call void @llvm.lifetime.start.p0(i64 1024, ptr nonnull %8) #11
  call void @llvm.lifetime.start.p0(i64 8, ptr nonnull %9) #11
  call void @llvm.lifetime.start.p0(i64 44, ptr nonnull %10) #11
  %13 = icmp eq i32 %2, 2
  %14 = select i1 %13, i32 4, i32 16
  %15 = getelementptr inbounds nuw i8, ptr %10, i64 8
  %16 = getelementptr inbounds nuw i8, ptr %10, i64 24
  call void @llvm.memset.p0.i64(ptr noundef nonnull align 4 dereferenceable(32) %15, i8 0, i64 32, i1 false)
  %17 = tail call noalias ptr @fopen(ptr noundef %3, ptr noundef nonnull @.str.11)
  %.not = icmp eq ptr %17, null
  br i1 %.not, label %54, label %.preheader

.preheader:                                       ; preds = %5
  %18 = getelementptr inbounds nuw i8, ptr %10, i64 4
  %19 = lshr exact i32 %14, 2
  %wide.trip.count = zext nneg i32 %19 to i64
  br label %.outer

.outer:                                           ; preds = %.preheader, %34
  %.031.ph = phi i32 [ -1, %.preheader ], [ %36, %34 ]
  br label %20

20:                                               ; preds = %.outer, %22
  %21 = call ptr @fgets(ptr noundef nonnull %8, i32 noundef 1024, ptr noundef nonnull %17)
  %.not35 = icmp eq ptr %21, null
  br i1 %.not35, label %.loopexit, label %22

22:                                               ; preds = %20
  %23 = call i32 (ptr, ptr, ...) @__isoc99_sscanf(ptr noundef nonnull %8, ptr noundef nonnull @.str.12, ptr noundef nonnull %6, ptr noundef nonnull %10, ptr noundef nonnull %7, ptr noundef nonnull %18, ptr noundef nonnull %9) #11
  switch i32 %23, label %24 [
    i32 -1, label %.loopexit
    i32 0, label %20
  ]

24:                                               ; preds = %22
  %25 = call i32 @inet_nsap_addr(ptr noundef nonnull %6, ptr noundef nonnull %15, i32 noundef %14) #11
  %26 = call i32 @inet_nsap_addr(ptr noundef nonnull %7, ptr noundef nonnull %16, i32 noundef %14) #11
  br label %27

27:                                               ; preds = %24, %27
  %indvars.iv = phi i64 [ 0, %24 ], [ %indvars.iv.next, %27 ]
  %28 = getelementptr inbounds nuw [4 x i32], ptr %15, i64 0, i64 %indvars.iv
  %29 = load i32, ptr %28, align 4
  %30 = call noundef i32 @llvm.bswap.i32(i32 %29)
  store i32 %30, ptr %28, align 4
  %31 = getelementptr inbounds nuw [4 x i32], ptr %16, i64 0, i64 %indvars.iv
  %32 = load i32, ptr %31, align 4
  %33 = call noundef i32 @llvm.bswap.i32(i32 %32)
  store i32 %33, ptr %31, align 4
  %indvars.iv.next = add nuw nsw i64 %indvars.iv, 1
  %exitcond.not = icmp eq i64 %indvars.iv.next, %wide.trip.count
  br i1 %exitcond.not, label %34, label %27, !llvm.loop !10

34:                                               ; preds = %27
  %35 = load i64, ptr %9, align 8
  %36 = call i32 %4(ptr noundef %0, ptr noundef %1, ptr noundef nonnull %10, i64 noundef %35, i32 noundef %2) #11, !callees !12
  %37 = icmp eq i32 %36, 0
  br i1 %37, label %38, label %.outer, !llvm.loop !13

38:                                               ; preds = %34
  call void @llvm.lifetime.start.p0(i64 46, ptr nonnull %11) #11
  call void @llvm.lifetime.start.p0(i64 46, ptr nonnull %12) #11
  %39 = getelementptr inbounds nuw i8, ptr %0, i64 24
  %40 = call ptr @inet_ntop(i32 noundef %2, ptr noundef nonnull %39, ptr noundef nonnull %11, i32 noundef 46) #11
  %41 = getelementptr inbounds nuw i8, ptr %0, i64 8
  %42 = call ptr @inet_ntop(i32 noundef %2, ptr noundef nonnull %41, ptr noundef nonnull %12, i32 noundef 46) #11
  %43 = call i32 @get_log_level() #11
  %44 = icmp sgt i32 %43, 4
  br i1 %44, label %45, label %52

45:                                               ; preds = %38
  %46 = getelementptr inbounds nuw i8, ptr %0, i64 4
  %47 = load i32, ptr %46, align 4
  %48 = zext i32 %47 to i64
  %49 = load i32, ptr %0, align 4
  %50 = zext i32 %49 to i64
  %51 = ptrtoint ptr %1 to i64
  call void (i32, ptr, ...) @log_var(i32 noundef 5, ptr noundef nonnull @.str.13, ptr noundef nonnull %11, i64 noundef %48, ptr noundef nonnull %12, i64 noundef %50, i64 noundef %51) #11
  br label %52

52:                                               ; preds = %45, %38
  call void @llvm.lifetime.end.p0(i64 46, ptr nonnull %12) #11
  call void @llvm.lifetime.end.p0(i64 46, ptr nonnull %11) #11
  br label %.loopexit

.loopexit:                                        ; preds = %22, %20, %52
  %.1 = phi i32 [ 0, %52 ], [ %.031.ph, %20 ], [ %.031.ph, %22 ]
  %53 = call i32 @fclose(ptr noundef nonnull %17)
  br label %54

54:                                               ; preds = %5, %.loopexit
  %.0 = phi i32 [ %.1, %.loopexit ], [ -1, %5 ]
  call void @llvm.lifetime.end.p0(i64 44, ptr nonnull %10) #11
  call void @llvm.lifetime.end.p0(i64 8, ptr nonnull %9) #11
  call void @llvm.lifetime.end.p0(i64 1024, ptr nonnull %8) #11
  call void @llvm.lifetime.end.p0(i64 47, ptr nonnull %7) #11
  call void @llvm.lifetime.end.p0(i64 47, ptr nonnull %6) #11
  ret i32 %.0
}